target datalayout = "e-m:e-p270:32:32-p271:32:32-p272:64:64-i64:64-i128:128-f80:128-n8:16:32:64-S128"
target triple = "x86_64-pc-linux-gnu"

%struct.DdNode = type { i32, i32, ptr, %union.anon, i64 }
%union.anon = type { %struct.DdChildren }
%struct.DdChildren = type { ptr, ptr }
%struct.DdManager = type { %struct.DdNode, ptr, ptr, ptr, ptr, ptr, ptr, ptr, i32, i32, double, double, double, i32, i32, i32, i32, i32, i32, ptr, ptr, %struct.DdSubtable, i32, i32, i32, i32, i32, i32, i32, double, i32, i32, i32, ptr, i64, double, i32, ptr, ptr, ptr, ptr, ptr, ptr, ptr, i32, ptr, ptr, ptr, ptr, ptr, ptr, i32, i32, i32, double, i32, i32, i32, i32, double, double, i32, i32, i32, i32, i32, i32, i32, i32, i32, ptr, ptr, i32, i32, i32, i32, i32, i32, ptr, ptr, ptr, ptr, ptr, ptr, ptr, ptr, i32, i64, i64, i64, i32, i64, i64, double, double, double, double, double, double, i32, ptr, ptr, i64 }
%struct.DdSubtable = type { ptr, i32, i32, i32, i32, i32, i32, i32, i32, i32, i32, i32 }

; Function Attrs: nounwind uwtable
define ptr @Cudd_addBddThreshold(ptr noundef %0, ptr noundef %1, double noundef %2) #0 {
  %4 = alloca ptr, align 8
  %5 = alloca ptr, align 8
  %6 = alloca ptr, align 8
  %7 = alloca double, align 8
  %8 = alloca ptr, align 8
  %9 = alloca ptr, align 8
  %10 = alloca i32, align 4
  store ptr %0, ptr %5, align 8, !tbaa !3
  store ptr %1, ptr %6, align 8, !tbaa !8
  store double %2, ptr %7, align 8, !tbaa !10
  call void @llvm.lifetime.start.p0(i64 8, ptr %8) #5
  call void @llvm.lifetime.start.p0(i64 8, ptr %9) #5
  %11 = load ptr, ptr %5, align 8, !tbaa !3
  %12 = load double, ptr %7, align 8, !tbaa !10
  %13 = call ptr @cuddUniqueConst(ptr noundef %11, double noundef %12)
  store ptr %13, ptr %9, align 8, !tbaa !8
  %14 = load ptr, ptr %9, align 8, !tbaa !8
  %15 = icmp eq ptr %14, null
  br i1 %15, label %16, label %17

16:                                               ; preds = %3
  store ptr null, ptr %4, align 8
  store i32 1, ptr %10, align 4
  br label %61

17:                                               ; preds = %3
  %18 = load ptr, ptr %9, align 8, !tbaa !8
  %19 = ptrtoint ptr %18 to i64
  %20 = and i64 %19, -2
  %21 = inttoptr i64 %20 to ptr
  %22 = getelementptr inbounds nuw %struct.DdNode, ptr %21, i32 0, i32 1
  %23 = load i32, ptr %22, align 4, !tbaa !12
  %24 = add i32 %23, 1
  store i32 %24, ptr %22, align 4, !tbaa !12
  br label %25

25:                                               ; preds = %32, %17
  %26 = load ptr, ptr %5, align 8, !tbaa !3
  %27 = getelementptr inbounds nuw %struct.DdManager, ptr %26, i32 0, i32 55
  store i32 0, ptr %27, align 8, !tbaa !16
  %28 = load ptr, ptr %5, align 8, !tbaa !3
  %29 = load ptr, ptr %6, align 8, !tbaa !8
  %30 = load ptr, ptr %9, align 8, !tbaa !8
  %31 = call ptr @addBddDoThreshold(ptr noundef %28, ptr noundef %29, ptr noundef %30)
  store ptr %31, ptr %8, align 8, !tbaa !8
  br label %32

32:                                               ; preds = %25
  %33 = load ptr, ptr %5, align 8, !tbaa !3
  %34 = getelementptr inbounds nuw %struct.DdManager, ptr %33, i32 0, i32 55
  %35 = load i32, ptr %34, align 8, !tbaa !16
  %36 = icmp eq i32 %35, 1
  br i1 %36, label %25, label %37, !llvm.loop !29

37:                                               ; preds = %32
  %38 = load ptr, ptr %8, align 8, !tbaa !8
  %39 = icmp eq ptr %38, null
  br i1 %39, label %40, label %43

40:                                               ; preds = %37
  %41 = load ptr, ptr %5, align 8, !tbaa !3
  %42 = load ptr, ptr %9, align 8, !tbaa !8
  call void @Cudd_RecursiveDeref(ptr noundef %41, ptr noundef %42)
  store ptr null, ptr %4, align 8
  store i32 1, ptr %10, align 4
  br label %61

43:                                               ; preds = %37
  %44 = load ptr, ptr %8, align 8, !tbaa !8
  %45 = ptrtoint ptr %44 to i64
  %46 = and i64 %45, -2
  %47 = inttoptr i64 %46 to ptr
  %48 = getelementptr inbounds nuw %struct.DdNode, ptr %47, i32 0, i32 1
  %49 = load i32, ptr %48, align 4, !tbaa !12
  %50 = add i32 %49, 1
  store i32 %50, ptr %48, align 4, !tbaa !12
  %51 = load ptr, ptr %5, align 8, !tbaa !3
  %52 = load ptr, ptr %9, align 8, !tbaa !8
  call void @Cudd_RecursiveDeref(ptr noundef %51, ptr noundef %52)
  %53 = load ptr, ptr %8, align 8, !tbaa !8
  %54 = ptrtoint ptr %53 to i64
  %55 = and i64 %54, -2
  %56 = inttoptr i64 %55 to ptr
  %57 = getelementptr inbounds nuw %struct.DdNode, ptr %56, i32 0, i32 1
  %58 = load i32, ptr %57, align 4, !tbaa !12
  %59 = add i32 %58, -1
  store i32 %59, ptr %57, align 4, !tbaa !12
  %60 = load ptr, ptr %8, align 8, !tbaa !8
  store ptr %60, ptr %4, align 8
  store i32 1, ptr %10, align 4
  br label %61

61:                                               ; preds = %43, %40, %16
  call void @llvm.lifetime.end.p0(i64 8, ptr %9) #5
  call void @llvm.lifetime.end.p0(i64 8, ptr %8) #5
  %62 = load ptr, ptr %4, align 8
  ret ptr %62
}